; Function Attrs: mustprogress uwtable
define void @_ZN6google8protobuf8internal25UnknownFieldSetSerializerEPKhjjjPNS0_2io17CodedOutputStreamE(ptr nocapture noundef readonly %base, i32 noundef %offset, i32 noundef %0, i32 noundef %1, ptr noundef %output) local_unnamed_addr #4 {
entry:
  %idx.ext = zext i32 %offset to i64
  %add.ptr = getelementptr inbounds i8, ptr %base, i64 %idx.ext
  %2 = load i64, ptr %add.ptr, align 8
  %and.i = and i64 %2, 1
  %tobool.i.not = icmp eq i64 %and.i, 0
  br i1 %tobool.i.not, label %if.end, label %if.then.i

if.then.i:                                        ; preds = %entry
  %and.i2 = and i64 %2, -2
  %3 = inttoptr i64 %and.i2 to ptr
  %unknown_fields.i = getelementptr inbounds i8, ptr %3, i64 8
  %call3 = tail call noundef zeroext i1 @_ZNK6google8protobuf15UnknownFieldSet22SerializeToCodedStreamEPNS0_2io17CodedOutputStreamE(ptr noundef nonnull align 8 dereferenceable(24) %unknown_fields.i, ptr noundef %output)
  br label %if.end

if.end:                                           ; preds = %if.then.i, %entry
  ret void
}